(lp0
(dp1
S'rotation_angle'
p2
I0
sS'trial_type'
p3
S'cursor'
p4
sS'terminal_feedback_time'
p5
I3
sS'task_name'
p6
VWish
p7
sS'num_targets'
p8
I3
sS'terminal_feedback'
p9
I00
sS'lag'
p10
I0
sS'pause_button_wait'
p11
I00
sS'terminal_multiplier'
p12
F1.01
sS'num_trials'
p13
I3
sS'starting_pos'
p14
(lp15
I0
aI-227
asS'min_angle'
p16
I40
sS'pause_instruction'
p17
VDefault
p18
sS'lag_value'
p19
I0
sS'max_distance'
p20
I455
sS'pausetime'
p21
I3
sS'poll_type'
p22
S'x11'
p23
sS'active_height'
p24
I455
sS'min_distance'
p25
I227
sS'max_angle'
p26
I140
sa.