(lp0
(dp1
S'rotation_angle'
p2
I0
sS'trial_type'
p3
S'cursor'
p4
sS'terminal_feedback_time'
p5
I3
sS'pause_instruction'
p6
VDefault
p7
sS'num_targets'
p8
I10
sS'terminal_feedback'
p9
I00
sS'lag'
p10
I0
sS'num_trials'
p11
I80
sS'terminal_multiplier'
p12
F1.01
sS'pause_button_wait'
p13
I00
sS'starting_pos'
p14
(lp15
I0
aI-227
asS'min_angle'
p16
I40
sS'task_name'
p17
VStart
p18
sS'lag_value'
p19
I0
sS'max_distance'
p20
I455
sS'pausetime'
p21
I3
sS'poll_type'
p22
S'x11'
p23
sS'active_height'
p24
I455
sS'min_distance'
p25
I227
sS'max_angle'
p26
I140
sa(dp27
S'rotation_angle'
p28
I0
sS'trial_type'
p29
S'pause'
p30
sS'terminal_feedback_time'
p31
I3
sS'pause_instruction'
p32
VDefault
p33
sS'num_targets'
p34
I3
sS'terminal_feedback'
p35
I00
sS'lag'
p36
I0
sS'num_trials'
p37
I3
sS'terminal_multiplier'
p38
F1.01
sS'pause_button_wait'
p39
I00
sS'starting_pos'
p40
(lp41
I0
aI-227
asS'min_angle'
p42
I40
sS'task_name'
p43
VMid
p44
sS'lag_value'
p45
I0
sS'max_distance'
p46
I455
sS'pausetime'
p47
I3
sS'poll_type'
p48
S'x11'
p49
sS'active_height'
p50
I455
sS'min_distance'
p51
I227
sS'max_angle'
p52
I140
sa.