(lp0
(dp1
S'rotation_angle'
p2
I0
sS'trial_type'
p3
S'error_clamp'
p4
sS'terminal_feedback_time'
p5
I3
sS'pause_instruction'
p6
VDefault
p7
sS'num_targets'
p8
I5
sS'lag'
p9
I0
sS'num_trials'
p10
I5
sS'lag_value'
p11
I0
sS'terminal_multiplier'
p12
F1.01
sS'pause_button_wait'
p13
I00
sS'starting_pos'
p14
(lp15
I0
aI-227
asS'min_angle'
p16
I90
sS'task_name'
p17
VDefault
p18
sS'terminal_feedback'
p19
I00
sS'max_distance'
p20
I455
sS'pausetime'
p21
I3
sS'poll_type'
p22
S'x11'
p23
sS'active_height'
p24
I455
sS'min_distance'
p25
I227
sS'max_angle'
p26
I140
sa.